target datalayout = "e-m:e-p270:32:32-p271:32:32-p272:64:64-i64:64-i128:128-f80:128-n8:16:32:64-S128"
target triple = "x86_64-pc-linux-gnu"

%struct.Dar_Lib_t_ = type { ptr, i32, i32, [222 x i32], [222 x ptr], ptr, i32, ptr, [222 x ptr], ptr, [222 x ptr], ptr, [222 x ptr], [222 x i32], [222 x ptr], ptr, i32, i32, i32, [222 x i32], [222 x ptr], ptr, i32, [222 x i32], [222 x ptr], ptr, i32, ptr, i32, ptr, ptr, ptr, ptr, ptr }
%struct.Dar_LibObj_t_ = type { i64 }
%struct.Vec_Int_t_ = type { i32, i32, ptr }
%struct.Dar_Man_t_ = type { ptr, ptr, ptr, ptr, ptr, ptr, i32, i32, i32, i32, i32, i32, [222 x i32], [222 x i32], [222 x i32], i32, i32, i32, i32, i32, i32, i32, i32, i32, i64, i64, i64, i64, i64, i64 }
%struct.Dar_LibDat_t_ = type { %union.anon, i32, i32, float, i8, [3 x i8] }
%union.anon = type { ptr }
%struct.Aig_Obj_t_ = type { %union.anon.0, ptr, ptr, i64, i32, i32, %union.anon.1 }
%union.anon.0 = type { ptr }
%union.anon.1 = type { ptr }
%struct.Dar_RwrPar_t_ = type { i32, i32, i32, i32, i32, i32, i32, i32, i32, i32 }
%struct.Aig_Man_t_ = type { ptr, ptr, ptr, ptr, ptr, ptr, ptr, %struct.Aig_Obj_t_, i32, i32, i32, i32, i32, i32, [7 x i32], i32, ptr, i32, ptr, i32, ptr, i32, i32, i32, ptr, i32, i32, i32, i32, i32, ptr, ptr, i32, ptr, ptr, i32, ptr, ptr, i32, i32, i32, ptr, ptr, ptr, ptr, ptr, ptr, ptr, ptr, ptr, ptr, ptr, ptr, ptr, ptr, i32, ptr, ptr, ptr, ptr, i32, i64, i64, i64, ptr, ptr }
%union.anon.2 = type { i32 }

@s_DarLib = internal global ptr null, align 8

; Function Attrs: nounwind uwtable
define internal i32 @Aig_IsComplement(ptr noundef %0) #0 {
  %2 = alloca ptr, align 8
  store ptr %0, ptr %2, align 8
  %3 = load ptr, ptr %2, align 8
  %4 = ptrtoint ptr %3 to i64
  %5 = and i64 %4, 1
  %6 = trunc i64 %5 to i32
  ret i32 %6
}

; Function Attrs: nounwind uwtable
define internal float @Abc_Int2Float(i32 noundef %0) #0 {
  %2 = alloca i32, align 4
  %3 = alloca %union.anon.2, align 4
  store i32 %0, ptr %2, align 4
  %4 = load i32, ptr %2, align 4
  store i32 %4, ptr %3, align 4
  %5 = load float, ptr %3, align 4
  ret float %5
}

; Function Attrs: nounwind uwtable
define internal i32 @Vec_IntEntry(ptr noundef %0, i32 noundef %1) #0 {
  %3 = alloca ptr, align 8
  %4 = alloca i32, align 4
  store ptr %0, ptr %3, align 8
  store i32 %1, ptr %4, align 4
  %5 = load ptr, ptr %3, align 8
  %6 = getelementptr inbounds %struct.Vec_Int_t_, ptr %5, i32 0, i32 2
  %7 = load ptr, ptr %6, align 8
  %8 = load i32, ptr %4, align 4
  %9 = sext i32 %8 to i64
  %10 = getelementptr inbounds i32, ptr %7, i64 %9
  %11 = load i32, ptr %10, align 4
  ret i32 %11
}

; Function Attrs: nounwind uwtable
define internal i32 @Aig_ObjId(ptr noundef %0) #0 {
  %2 = alloca ptr, align 8
  store ptr %0, ptr %2, align 8
  %3 = load ptr, ptr %2, align 8
  %4 = getelementptr inbounds %struct.Aig_Obj_t_, ptr %3, i32 0, i32 5
  %5 = load i32, ptr %4, align 4
  ret i32 %5
}

; Function Attrs: nounwind uwtable
define internal i32 @Aig_ObjIsTravIdCurrent(ptr noundef %0, ptr noundef %1) #0 {
  %3 = alloca ptr, align 8
  %4 = alloca ptr, align 8
  store ptr %0, ptr %3, align 8
  store ptr %1, ptr %4, align 8
  %5 = load ptr, ptr %4, align 8
  %6 = getelementptr inbounds %struct.Aig_Obj_t_, ptr %5, i32 0, i32 4
  %7 = load i32, ptr %6, align 8
  %8 = load ptr, ptr %3, align 8
  %9 = getelementptr inbounds %struct.Aig_Man_t_, ptr %8, i32 0, i32 38
  %10 = load i32, ptr %9, align 8
  %11 = icmp eq i32 %7, %10
  %12 = zext i1 %11 to i32
  ret i32 %12
}

; Function Attrs: nounwind uwtable
define internal ptr @Aig_Regular(ptr noundef %0) #0 {
  %2 = alloca ptr, align 8
  store ptr %0, ptr %2, align 8
  %3 = load ptr, ptr %2, align 8
  %4 = ptrtoint ptr %3 to i64
  %5 = and i64 %4, -2
  %6 = inttoptr i64 %5 to ptr
  ret ptr %6
}

; Function Attrs: nounwind uwtable
define internal ptr @Aig_NotCond(ptr noundef %0, i32 noundef %1) #0 {
  %3 = alloca ptr, align 8
  %4 = alloca i32, align 4
  store ptr %0, ptr %3, align 8
  store i32 %1, ptr %4, align 4
  %5 = load ptr, ptr %3, align 8
  %6 = ptrtoint ptr %5 to i64
  %7 = load i32, ptr %4, align 4
  %8 = sext i32 %7 to i64
  %9 = xor i64 %6, %8
  %10 = inttoptr i64 %9 to ptr
  ret ptr %10
}

; Function Attrs: nounwind uwtable
define internal i32 @Abc_MaxInt(i32 noundef %0, i32 noundef %1) #0 {
  %3 = alloca i32, align 4
  %4 = alloca i32, align 4
  store i32 %0, ptr %3, align 4
  store i32 %1, ptr %4, align 4
  %5 = load i32, ptr %3, align 4
  %6 = load i32, ptr %4, align 4
  %7 = icmp sgt i32 %5, %6
  br i1 %7, label %8, label %10

8:                                                ; preds = %2
  %9 = load i32, ptr %3, align 4
  br label %12

10:                                               ; preds = %2
  %11 = load i32, ptr %4, align 4
  br label %12

12:                                               ; preds = %10, %8
  %13 = phi i32 [ %9, %8 ], [ %11, %10 ]
  ret i32 %13
}

; Function Attrs: nounwind uwtable
define internal ptr @Dar_LibObj(ptr noundef %0, i32 noundef %1) #0 {
  %3 = alloca ptr, align 8
  %4 = alloca i32, align 4
  store ptr %0, ptr %3, align 8
  store i32 %1, ptr %4, align 4
  %5 = load ptr, ptr %3, align 8
  %6 = getelementptr inbounds %struct.Dar_Lib_t_, ptr %5, i32 0, i32 0
  %7 = load ptr, ptr %6, align 8
  %8 = load i32, ptr %4, align 4
  %9 = sext i32 %8 to i64
  %10 = getelementptr inbounds %struct.Dar_LibObj_t_, ptr %7, i64 %9
  ret ptr %10
}

; Function Attrs: nounwind uwtable
define void @Dar_LibEvalAssignNums(ptr noundef %0, i32 noundef %1, ptr noundef %2) #0 {
  %4 = alloca ptr, align 8
  %5 = alloca i32, align 4
  %6 = alloca ptr, align 8
  %7 = alloca ptr, align 8
  %8 = alloca ptr, align 8
  %9 = alloca ptr, align 8
  %10 = alloca ptr, align 8
  %11 = alloca ptr, align 8
  %12 = alloca ptr, align 8
  %13 = alloca i32, align 4
  %14 = alloca float, align 4
  store ptr %0, ptr %4, align 8
  store i32 %1, ptr %5, align 4
  store ptr %2, ptr %6, align 8
  store i32 0, ptr %13, align 4
  br label %15

15:                                               ; preds = %213, %3
  %16 = load i32, ptr %13, align 4
  %17 = load ptr, ptr @s_DarLib, align 8
  %18 = getelementptr inbounds %struct.Dar_Lib_t_, ptr %17, i32 0, i32 19
  %19 = load i32, ptr %5, align 4
  %20 = sext i32 %19 to i64
  %21 = getelementptr inbounds [222 x i32], ptr %18, i64 0, i64 %20
  %22 = load i32, ptr %21, align 4
  %23 = icmp slt i32 %16, %22
  br i1 %23, label %24, label %216

24:                                               ; preds = %15
  %25 = load ptr, ptr @s_DarLib, align 8
  %26 = load ptr, ptr @s_DarLib, align 8
  %27 = getelementptr inbounds %struct.Dar_Lib_t_, ptr %26, i32 0, i32 20
  %28 = load i32, ptr %5, align 4
  %29 = sext i32 %28 to i64
  %30 = getelementptr inbounds [222 x ptr], ptr %27, i64 0, i64 %29
  %31 = load ptr, ptr %30, align 8
  %32 = load i32, ptr %13, align 4
  %33 = sext i32 %32 to i64
  %34 = getelementptr inbounds i32, ptr %31, i64 %33
  %35 = load i32, ptr %34, align 4
  %36 = call ptr @Dar_LibObj(ptr noundef %25, i32 noundef %35)
  store ptr %36, ptr %7, align 8
  %37 = load i32, ptr %13, align 4
  %38 = add nsw i32 4, %37
  %39 = load ptr, ptr %7, align 8
  %40 = zext i32 %38 to i64
  %41 = load i64, ptr %39, align 4
  %42 = and i64 %40, 268435455
  %43 = shl i64 %42, 36
  %44 = and i64 %41, 68719476735
  %45 = or i64 %44, %43
  store i64 %45, ptr %39, align 4
  %46 = load ptr, ptr @s_DarLib, align 8
  %47 = getelementptr inbounds %struct.Dar_Lib_t_, ptr %46, i32 0, i32 27
  %48 = load ptr, ptr %47, align 8
  %49 = load ptr, ptr %7, align 8
  %50 = load i64, ptr %49, align 4
  %51 = lshr i64 %50, 36
  %52 = trunc i64 %51 to i32
  %53 = sext i32 %52 to i64
  %54 = getelementptr inbounds %struct.Dar_LibDat_t_, ptr %48, i64 %53
  store ptr %54, ptr %8, align 8
  %55 = load ptr, ptr %8, align 8
  %56 = getelementptr inbounds %struct.Dar_LibDat_t_, ptr %55, i32 0, i32 4
  store i8 0, ptr %56, align 4
  %57 = load ptr, ptr %8, align 8
  %58 = getelementptr inbounds %struct.Dar_LibDat_t_, ptr %57, i32 0, i32 0
  store ptr null, ptr %58, align 8
  %59 = load ptr, ptr %8, align 8
  %60 = getelementptr inbounds %struct.Dar_LibDat_t_, ptr %59, i32 0, i32 2
  store i32 65535, ptr %60, align 4
  %61 = load ptr, ptr @s_DarLib, align 8
  %62 = getelementptr inbounds %struct.Dar_Lib_t_, ptr %61, i32 0, i32 27
  %63 = load ptr, ptr %62, align 8
  %64 = load ptr, ptr @s_DarLib, align 8
  %65 = load ptr, ptr %7, align 8
  %66 = load i64, ptr %65, align 4
  %67 = and i64 %66, 65535
  %68 = trunc i64 %67 to i32
  %69 = call ptr @Dar_LibObj(ptr noundef %64, i32 noundef %68)
  %70 = load i64, ptr %69, align 4
  %71 = lshr i64 %70, 36
  %72 = trunc i64 %71 to i32
  %73 = sext i32 %72 to i64
  %74 = getelementptr inbounds %struct.Dar_LibDat_t_, ptr %63, i64 %73
  store ptr %74, ptr %9, align 8
  %75 = load ptr, ptr @s_DarLib, align 8
  %76 = getelementptr inbounds %struct.Dar_Lib_t_, ptr %75, i32 0, i32 27
  %77 = load ptr, ptr %76, align 8
  %78 = load ptr, ptr @s_DarLib, align 8
  %79 = load ptr, ptr %7, align 8
  %80 = load i64, ptr %79, align 4
  %81 = lshr i64 %80, 16
  %82 = and i64 %81, 65535
  %83 = trunc i64 %82 to i32
  %84 = call ptr @Dar_LibObj(ptr noundef %78, i32 noundef %83)
  %85 = load i64, ptr %84, align 4
  %86 = lshr i64 %85, 36
  %87 = trunc i64 %86 to i32
  %88 = sext i32 %87 to i64
  %89 = getelementptr inbounds %struct.Dar_LibDat_t_, ptr %77, i64 %88
  store ptr %89, ptr %10, align 8
  %90 = load ptr, ptr %9, align 8
  %91 = getelementptr inbounds %struct.Dar_LibDat_t_, ptr %90, i32 0, i32 1
  %92 = load i32, ptr %91, align 8
  %93 = load ptr, ptr %10, align 8
  %94 = getelementptr inbounds %struct.Dar_LibDat_t_, ptr %93, i32 0, i32 1
  %95 = load i32, ptr %94, align 8
  %96 = call i32 @Abc_MaxInt(i32 noundef %92, i32 noundef %95)
  %97 = add nsw i32 1, %96
  %98 = load ptr, ptr %8, align 8
  %99 = getelementptr inbounds %struct.Dar_LibDat_t_, ptr %98, i32 0, i32 1
  store i32 %97, ptr %99, align 8
  %100 = load ptr, ptr %9, align 8
  %101 = getelementptr inbounds %struct.Dar_LibDat_t_, ptr %100, i32 0, i32 0
  %102 = load ptr, ptr %101, align 8
  %103 = icmp eq ptr %102, null
  br i1 %103, label %109, label %104

104:                                              ; preds = %24
  %105 = load ptr, ptr %10, align 8
  %106 = getelementptr inbounds %struct.Dar_LibDat_t_, ptr %105, i32 0, i32 0
  %107 = load ptr, ptr %106, align 8
  %108 = icmp eq ptr %107, null
  br i1 %108, label %109, label %110

109:                                              ; preds = %104, %24
  br label %213

110:                                              ; preds = %104
  %111 = load ptr, ptr %9, align 8
  %112 = getelementptr inbounds %struct.Dar_LibDat_t_, ptr %111, i32 0, i32 0
  %113 = load ptr, ptr %112, align 8
  %114 = load ptr, ptr %7, align 8
  %115 = load i64, ptr %114, align 4
  %116 = lshr i64 %115, 32
  %117 = and i64 %116, 1
  %118 = trunc i64 %117 to i32
  %119 = call ptr @Aig_NotCond(ptr noundef %113, i32 noundef %118)
  store ptr %119, ptr %11, align 8
  %120 = load ptr, ptr %10, align 8
  %121 = getelementptr inbounds %struct.Dar_LibDat_t_, ptr %120, i32 0, i32 0
  %122 = load ptr, ptr %121, align 8
  %123 = load ptr, ptr %7, align 8
  %124 = load i64, ptr %123, align 4
  %125 = lshr i64 %124, 33
  %126 = and i64 %125, 1
  %127 = trunc i64 %126 to i32
  %128 = call ptr @Aig_NotCond(ptr noundef %122, i32 noundef %127)
  store ptr %128, ptr %12, align 8
  %129 = load ptr, ptr %11, align 8
  %130 = call ptr @Aig_Regular(ptr noundef %129)
  %131 = load ptr, ptr %6, align 8
  %132 = icmp eq ptr %130, %131
  br i1 %132, label %138, label %133

133:                                              ; preds = %110
  %134 = load ptr, ptr %12, align 8
  %135 = call ptr @Aig_Regular(ptr noundef %134)
  %136 = load ptr, ptr %6, align 8
  %137 = icmp eq ptr %135, %136
  br i1 %137, label %138, label %139

138:                                              ; preds = %133, %110
  br label %213

139:                                              ; preds = %133
  %140 = load ptr, ptr %4, align 8
  %141 = getelementptr inbounds %struct.Dar_Man_t_, ptr %140, i32 0, i32 1
  %142 = load ptr, ptr %141, align 8
  %143 = load ptr, ptr %11, align 8
  %144 = load ptr, ptr %12, align 8
  %145 = call ptr @Aig_TableLookupTwo(ptr noundef %142, ptr noundef %143, ptr noundef %144)
  %146 = load ptr, ptr %8, align 8
  %147 = getelementptr inbounds %struct.Dar_LibDat_t_, ptr %146, i32 0, i32 0
  store ptr %145, ptr %147, align 8
  %148 = load ptr, ptr %8, align 8
  %149 = getelementptr inbounds %struct.Dar_LibDat_t_, ptr %148, i32 0, i32 0
  %150 = load ptr, ptr %149, align 8
  %151 = icmp ne ptr %150, null
  br i1 %151, label %152, label %212

152:                                              ; preds = %139
  %153 = load ptr, ptr %8, align 8
  %154 = getelementptr inbounds %struct.Dar_LibDat_t_, ptr %153, i32 0, i32 0
  %155 = load ptr, ptr %154, align 8
  %156 = call ptr @Aig_Regular(ptr noundef %155)
  %157 = getelementptr inbounds %struct.Aig_Obj_t_, ptr %156, i32 0, i32 3
  %158 = load i64, ptr %157, align 8
  %159 = lshr i64 %158, 32
  %160 = and i64 %159, 16777215
  %161 = trunc i64 %160 to i32
  %162 = load ptr, ptr %8, align 8
  %163 = getelementptr inbounds %struct.Dar_LibDat_t_, ptr %162, i32 0, i32 1
  store i32 %161, ptr %163, align 8
  %164 = load ptr, ptr %4, align 8
  %165 = getelementptr inbounds %struct.Dar_Man_t_, ptr %164, i32 0, i32 1
  %166 = load ptr, ptr %165, align 8
  %167 = load ptr, ptr %8, align 8
  %168 = getelementptr inbounds %struct.Dar_LibDat_t_, ptr %167, i32 0, i32 0
  %169 = load ptr, ptr %168, align 8
  %170 = call ptr @Aig_Regular(ptr noundef %169)
  %171 = call i32 @Aig_ObjIsTravIdCurrent(ptr noundef %166, ptr noundef %170)
  %172 = trunc i32 %171 to i8
  %173 = load ptr, ptr %8, align 8
  %174 = getelementptr inbounds %struct.Dar_LibDat_t_, ptr %173, i32 0, i32 4
  store i8 %172, ptr %174, align 4
  %175 = load ptr, ptr %4, align 8
  %176 = getelementptr inbounds %struct.Dar_Man_t_, ptr %175, i32 0, i32 0
  %177 = load ptr, ptr %176, align 8
  %178 = getelementptr inbounds %struct.Dar_RwrPar_t_, ptr %177, i32 0, i32 6
  %179 = load i32, ptr %178, align 4
  %180 = icmp ne i32 %179, 0
  br i1 %180, label %181, label %211

181:                                              ; preds = %152
  %182 = load ptr, ptr %4, align 8
  %183 = getelementptr inbounds %struct.Dar_Man_t_, ptr %182, i32 0, i32 1
  %184 = load ptr, ptr %183, align 8
  %185 = getelementptr inbounds %struct.Aig_Man_t_, ptr %184, i32 0, i32 58
  %186 = load ptr, ptr %185, align 8
  %187 = load ptr, ptr %8, align 8
  %188 = getelementptr inbounds %struct.Dar_LibDat_t_, ptr %187, i32 0, i32 0
  %189 = load ptr, ptr %188, align 8
  %190 = call ptr @Aig_Regular(ptr noundef %189)
  %191 = call i32 @Aig_ObjId(ptr noundef %190)
  %192 = call i32 @Vec_IntEntry(ptr noundef %186, i32 noundef %191)
  %193 = call float @Abc_Int2Float(i32 noundef %192)
  store float %193, ptr %14, align 4
  %194 = load ptr, ptr %8, align 8
  %195 = getelementptr inbounds %struct.Dar_LibDat_t_, ptr %194, i32 0, i32 0
  %196 = load ptr, ptr %195, align 8
  %197 = call i32 @Aig_IsComplement(ptr noundef %196)
  %198 = icmp ne i32 %197, 0
  br i1 %198, label %199, label %203

199:                                              ; preds = %181
  %200 = load float, ptr %14, align 4
  %201 = fpext float %200 to double
  %202 = fsub double 1.000000e+00, %201
  br label %206

203:                                              ; preds = %181
  %204 = load float, ptr %14, align 4
  %205 = fpext float %204 to double
  br label %206

206:                                              ; preds = %203, %199
  %207 = phi double [ %202, %199 ], [ %205, %203 ]
  %208 = fptrunc double %207 to float
  %209 = load ptr, ptr %8, align 8
  %210 = getelementptr inbounds %struct.Dar_LibDat_t_, ptr %209, i32 0, i32 3
  store float %208, ptr %210, align 8
  br label %211

211:                                              ; preds = %206, %152
  br label %212

212:                                              ; preds = %211, %139
  br label %213

213:                                              ; preds = %212, %138, %109
  %214 = load i32, ptr %13, align 4
  %215 = add nsw i32 %214, 1
  store i32 %215, ptr %13, align 4
  br label %15, !llvm.loop !46

216:                                              ; preds = %15
  ret void
}