; Function Attrs: nounwind uwtable
define void @Dar_LibEvalAssignNums(ptr noundef readonly captures(none) %0, i32 noundef %1, ptr noundef readnone %2) local_unnamed_addr #0 {
  %4 = sext i32 %1 to i64
  %5 = load ptr, ptr @s_DarLib, align 8
  %6 = getelementptr inbounds nuw i8, ptr %5, i64 10732
  %7 = getelementptr inbounds [222 x i32], ptr %6, i64 0, i64 %4
  %8 = load i32, ptr %7, align 4
  %9 = icmp sgt i32 %8, 0
  br i1 %9, label %.lr.ph, label %._crit_edge

.lr.ph:                                           ; preds = %3
  %10 = getelementptr inbounds nuw i8, ptr %0, i64 8
  br label %11

11:                                               ; preds = %.lr.ph, %107
  %indvars.iv = phi i64 [ 0, %.lr.ph ], [ %indvars.iv.next, %107 ]
  %12 = phi ptr [ %5, %.lr.ph ], [ %108, %107 ]
  %13 = getelementptr inbounds nuw i8, ptr %12, i64 11624
  %14 = getelementptr inbounds [222 x ptr], ptr %13, i64 0, i64 %4
  %15 = load ptr, ptr %14, align 8
  %16 = getelementptr inbounds nuw i32, ptr %15, i64 %indvars.iv
  %17 = load i32, ptr %16, align 4
  %.val48 = load ptr, ptr %12, align 8
  %18 = sext i32 %17 to i64
  %19 = getelementptr inbounds %struct.Dar_LibObj_t_, ptr %.val48, i64 %18
  %20 = load i64, ptr %19, align 4
  %21 = add nuw nsw i64 %indvars.iv, 4
  %22 = and i64 %21, 268435455
  %23 = shl nuw i64 %22, 36
  %24 = and i64 %20, 68719476735
  %25 = or disjoint i64 %24, %23
  store i64 %25, ptr %19, align 4
  %26 = getelementptr inbounds nuw i8, ptr %12, i64 16096
  %27 = load ptr, ptr %26, align 8
  %28 = getelementptr inbounds nuw %struct.Dar_LibDat_t_, ptr %27, i64 %22
  %29 = getelementptr inbounds nuw i8, ptr %28, i64 20
  store i8 0, ptr %29, align 4
  store ptr null, ptr %28, align 8
  %30 = getelementptr inbounds nuw i8, ptr %28, i64 12
  store i32 65535, ptr %30, align 4
  %31 = load ptr, ptr %26, align 8
  %32 = load i64, ptr %19, align 4
  %33 = and i64 %32, 65535
  %.val47 = load ptr, ptr %12, align 8
  %34 = getelementptr inbounds nuw %struct.Dar_LibObj_t_, ptr %.val47, i64 %33
  %35 = load i64, ptr %34, align 4
  %36 = lshr i64 %35, 36
  %37 = getelementptr inbounds nuw %struct.Dar_LibDat_t_, ptr %31, i64 %36
  %38 = lshr i64 %32, 16
  %39 = and i64 %38, 65535
  %40 = getelementptr inbounds nuw %struct.Dar_LibObj_t_, ptr %.val47, i64 %39
  %41 = load i64, ptr %40, align 4
  %42 = lshr i64 %41, 36
  %43 = getelementptr inbounds nuw %struct.Dar_LibDat_t_, ptr %31, i64 %42
  %44 = getelementptr inbounds nuw i8, ptr %37, i64 8
  %45 = load i32, ptr %44, align 8
  %46 = getelementptr inbounds nuw i8, ptr %43, i64 8
  %47 = load i32, ptr %46, align 8
  %48 = tail call noundef i32 @llvm.smax.i32(i32 %45, i32 %47)
  %49 = add nsw i32 %48, 1
  %50 = getelementptr inbounds nuw i8, ptr %28, i64 8
  store i32 %49, ptr %50, align 8
  %51 = load ptr, ptr %37, align 8
  %52 = icmp eq ptr %51, null
  br i1 %52, label %107, label %53

53:                                               ; preds = %11
  %54 = load ptr, ptr %43, align 8
  %55 = icmp eq ptr %54, null
  br i1 %55, label %107, label %56

56:                                               ; preds = %53
  %57 = ptrtoint ptr %51 to i64
  %58 = ptrtoint ptr %54 to i64
  %59 = and i64 %57, -2
  %60 = inttoptr i64 %59 to ptr
  %61 = icmp eq ptr %2, %60
  %62 = and i64 %58, -2
  %63 = inttoptr i64 %62 to ptr
  %64 = icmp eq ptr %2, %63
  %or.cond = or i1 %61, %64
  br i1 %or.cond, label %107, label %65

65:                                               ; preds = %56
  %66 = load i64, ptr %19, align 4
  %67 = lshr i64 %66, 33
  %68 = and i64 %67, 1
  %69 = xor i64 %68, %58
  %70 = lshr i64 %66, 32
  %71 = and i64 %70, 1
  %72 = xor i64 %71, %57
  %73 = inttoptr i64 %69 to ptr
  %74 = inttoptr i64 %72 to ptr
  %75 = load ptr, ptr %10, align 8
  %76 = tail call ptr @Aig_TableLookupTwo(ptr noundef %75, ptr noundef %74, ptr noundef %73) #20
  store ptr %76, ptr %28, align 8
  %.not = icmp eq ptr %76, null
  br i1 %.not, label %107, label %77

77:                                               ; preds = %65
  %78 = ptrtoint ptr %76 to i64
  %79 = and i64 %78, -2
  %80 = inttoptr i64 %79 to ptr
  %81 = getelementptr inbounds nuw i8, ptr %80, i64 24
  %82 = load i64, ptr %81, align 8
  %83 = lshr i64 %82, 32
  %84 = trunc nuw i64 %83 to i32
  %85 = and i32 %84, 16777215
  store i32 %85, ptr %50, align 8
  %86 = load ptr, ptr %10, align 8
  %87 = getelementptr i8, ptr %86, i64 312
  %.val51 = load i32, ptr %87, align 8
  %88 = getelementptr i8, ptr %80, i64 32
  %.val52 = load i32, ptr %88, align 8
  %89 = icmp eq i32 %.val52, %.val51
  %90 = zext i1 %89 to i8
  store i8 %90, ptr %29, align 4
  %91 = load ptr, ptr %0, align 8
  %92 = getelementptr inbounds nuw i8, ptr %91, i64 24
  %93 = load i32, ptr %92, align 4
  %.not45 = icmp eq i32 %93, 0
  br i1 %.not45, label %107, label %94

94:                                               ; preds = %77
  %95 = load ptr, ptr %10, align 8
  %96 = getelementptr inbounds nuw i8, ptr %95, i64 464
  %97 = load ptr, ptr %96, align 8
  %98 = getelementptr i8, ptr %80, i64 36
  %.val50 = load i32, ptr %98, align 4
  %99 = getelementptr i8, ptr %97, i64 8
  %.val49 = load ptr, ptr %99, align 8
  %100 = sext i32 %.val50 to i64
  %101 = getelementptr inbounds i32, ptr %.val49, i64 %100
  %102 = load float, ptr %101, align 4
  %103 = and i64 %78, 1
  %.not46 = icmp eq i64 %103, 0
  %104 = fsub float 1.000000e+00, %102
  %105 = select i1 %.not46, float %102, float %104
  %106 = getelementptr inbounds nuw i8, ptr %28, i64 16
  store float %105, ptr %106, align 8
  br label %107

107:                                              ; preds = %65, %94, %77, %56, %11, %53
  %indvars.iv.next = add nuw nsw i64 %indvars.iv, 1
  %108 = load ptr, ptr @s_DarLib, align 8
  %109 = getelementptr inbounds nuw i8, ptr %108, i64 10732
  %110 = getelementptr inbounds [222 x i32], ptr %109, i64 0, i64 %4
  %111 = load i32, ptr %110, align 4
  %112 = sext i32 %111 to i64
  %113 = icmp slt i64 %indvars.iv.next, %112
  br i1 %113, label %11, label %._crit_edge, !llvm.loop !38

._crit_edge:                                      ; preds = %107, %3
  ret void
}